target datalayout = "e-m:e-p270:32:32-p271:32:32-p272:64:64-i64:64-i128:128-f80:128-n8:16:32:64-S128"
target triple = "x86_64-pc-linux-gnu"

%struct.mbedtls_psa_pake_operation_t = type { i32, ptr, i64, i32, [336 x i8], i64, i64, %union.anon }
%union.anon = type { %struct.mbedtls_ecjpake_context }
%struct.mbedtls_ecjpake_context = type { i32, %struct.mbedtls_ecp_group, i32, i32, %struct.mbedtls_ecp_point, %struct.mbedtls_ecp_point, %struct.mbedtls_ecp_point, %struct.mbedtls_ecp_point, %struct.mbedtls_ecp_point, %struct.mbedtls_mpi, %struct.mbedtls_mpi, %struct.mbedtls_mpi }
%struct.mbedtls_ecp_group = type { i32, %struct.mbedtls_mpi, %struct.mbedtls_mpi, %struct.mbedtls_mpi, %struct.mbedtls_ecp_point, %struct.mbedtls_mpi, i64, i64, i32, ptr, ptr, ptr, ptr, ptr, i64 }
%struct.mbedtls_ecp_point = type { %struct.mbedtls_mpi, %struct.mbedtls_mpi, %struct.mbedtls_mpi }
%struct.mbedtls_mpi = type { ptr, i16, i16 }

; Function Attrs: nounwind uwtable
define internal i32 @mbedtls_ecjpake_to_psa_error(i32 noundef %0) #0 {
  %2 = alloca i32, align 4
  %3 = alloca i32, align 4
  store i32 %0, ptr %3, align 4, !tbaa !9
  %4 = load i32, ptr %3, align 4, !tbaa !9
  switch i32 %4, label %9 [
    i32 -4, label %5
    i32 -20352, label %5
    i32 -19584, label %5
    i32 -19968, label %5
    i32 -8, label %6
    i32 -20224, label %6
    i32 -20608, label %7
    i32 -110, label %8
  ]

5:                                                ; preds = %1, %1, %1, %1
  store i32 -153, ptr %2, align 4
  br label %10

6:                                                ; preds = %1, %1
  store i32 -138, ptr %2, align 4
  br label %10

7:                                                ; preds = %1
  store i32 -134, ptr %2, align 4
  br label %10

8:                                                ; preds = %1
  store i32 -151, ptr %2, align 4
  br label %10

9:                                                ; preds = %1
  store i32 -132, ptr %2, align 4
  br label %10

10:                                               ; preds = %9, %8, %7, %6, %5
  %11 = load i32, ptr %2, align 4
  ret i32 %11
}

; Function Attrs: nounwind uwtable
define internal i32 @psa_pake_ecjpake_setup(ptr noundef %0) #0 {
  %2 = alloca i32, align 4
  %3 = alloca ptr, align 8
  %4 = alloca i32, align 4
  %5 = alloca i32, align 4
  store ptr %0, ptr %3, align 8, !tbaa !3
  call void @llvm.lifetime.start.p0(i64 4, ptr %4) #9
  store i32 -110, ptr %4, align 4, !tbaa !9
  %6 = load ptr, ptr %3, align 8, !tbaa !3
  %7 = getelementptr inbounds nuw %struct.mbedtls_psa_pake_operation_t, ptr %6, i32 0, i32 7
  call void @mbedtls_ecjpake_init(ptr noundef %7)
  %8 = load ptr, ptr %3, align 8, !tbaa !3
  %9 = getelementptr inbounds nuw %struct.mbedtls_psa_pake_operation_t, ptr %8, i32 0, i32 7
  %10 = load ptr, ptr %3, align 8, !tbaa !3
  %11 = getelementptr inbounds nuw %struct.mbedtls_psa_pake_operation_t, ptr %10, i32 0, i32 3
  %12 = load i32, ptr %11, align 8, !tbaa !26
  %13 = load ptr, ptr %3, align 8, !tbaa !3
  %14 = getelementptr inbounds nuw %struct.mbedtls_psa_pake_operation_t, ptr %13, i32 0, i32 1
  %15 = load ptr, ptr %14, align 8, !tbaa !15
  %16 = load ptr, ptr %3, align 8, !tbaa !3
  %17 = getelementptr inbounds nuw %struct.mbedtls_psa_pake_operation_t, ptr %16, i32 0, i32 2
  %18 = load i64, ptr %17, align 8, !tbaa !17
  %19 = call i32 @mbedtls_ecjpake_setup(ptr noundef %9, i32 noundef %12, i32 noundef 9, i32 noundef 3, ptr noundef %15, i64 noundef %18)
  store i32 %19, ptr %4, align 4, !tbaa !9
  %20 = load ptr, ptr %3, align 8, !tbaa !3
  %21 = getelementptr inbounds nuw %struct.mbedtls_psa_pake_operation_t, ptr %20, i32 0, i32 1
  %22 = load ptr, ptr %21, align 8, !tbaa !15
  %23 = load ptr, ptr %3, align 8, !tbaa !3
  %24 = getelementptr inbounds nuw %struct.mbedtls_psa_pake_operation_t, ptr %23, i32 0, i32 2
  %25 = load i64, ptr %24, align 8, !tbaa !17
  call void @mbedtls_platform_zeroize(ptr noundef %22, i64 noundef %25)
  %26 = load i32, ptr %4, align 4, !tbaa !9
  %27 = icmp ne i32 %26, 0
  br i1 %27, label %28, label %31

28:                                               ; preds = %1
  %29 = load i32, ptr %4, align 4, !tbaa !9
  %30 = call i32 @mbedtls_ecjpake_to_psa_error(i32 noundef %29)
  store i32 %30, ptr %2, align 4
  store i32 1, ptr %5, align 4
  br label %32

31:                                               ; preds = %1
  store i32 0, ptr %2, align 4
  store i32 1, ptr %5, align 4
  br label %32

32:                                               ; preds = %31, %28
  call void @llvm.lifetime.end.p0(i64 4, ptr %4) #9
  %33 = load i32, ptr %2, align 4
  ret i32 %33
}