; Function Attrs: nounwind uwtable
define internal fastcc range(i32 -153, 1) i32 @psa_pake_ecjpake_setup(ptr noundef %0) unnamed_addr #0 {
  %2 = getelementptr inbounds nuw i8, ptr %0, i64 384
  tail call void @mbedtls_ecjpake_init(ptr noundef nonnull %2) #8
  %3 = getelementptr inbounds nuw i8, ptr %0, i64 24
  %4 = load i32, ptr %3, align 8, !tbaa !18
  %5 = getelementptr inbounds nuw i8, ptr %0, i64 8
  %6 = load ptr, ptr %5, align 8, !tbaa !7
  %7 = getelementptr inbounds nuw i8, ptr %0, i64 16
  %8 = load i64, ptr %7, align 8, !tbaa !12
  %9 = tail call i32 @mbedtls_ecjpake_setup(ptr noundef nonnull %2, i32 noundef %4, i32 noundef 9, i32 noundef 3, ptr noundef %6, i64 noundef %8) #8
  %10 = load ptr, ptr %5, align 8, !tbaa !7
  %11 = load i64, ptr %7, align 8, !tbaa !12
  tail call void @mbedtls_platform_zeroize(ptr noundef %10, i64 noundef %11) #8
  switch i32 %9, label %15 [
    i32 0, label %mbedtls_ecjpake_to_psa_error.exit
    i32 -4, label %mbedtls_ecjpake_to_psa_error.exit.fold.split
    i32 -20352, label %mbedtls_ecjpake_to_psa_error.exit.fold.split
    i32 -19584, label %mbedtls_ecjpake_to_psa_error.exit.fold.split
    i32 -19968, label %mbedtls_ecjpake_to_psa_error.exit.fold.split
    i32 -8, label %12
    i32 -20224, label %12
    i32 -20608, label %13
    i32 -110, label %14
  ]

12:                                               ; preds = %1, %1
  br label %mbedtls_ecjpake_to_psa_error.exit

13:                                               ; preds = %1
  br label %mbedtls_ecjpake_to_psa_error.exit

14:                                               ; preds = %1
  br label %mbedtls_ecjpake_to_psa_error.exit

15:                                               ; preds = %1
  br label %mbedtls_ecjpake_to_psa_error.exit

mbedtls_ecjpake_to_psa_error.exit.fold.split:     ; preds = %1, %1, %1, %1
  br label %mbedtls_ecjpake_to_psa_error.exit

mbedtls_ecjpake_to_psa_error.exit:                ; preds = %1, %mbedtls_ecjpake_to_psa_error.exit.fold.split, %15, %14, %13, %12
  %.0 = phi i32 [ %9, %1 ], [ -132, %15 ], [ -151, %14 ], [ -134, %13 ], [ -138, %12 ], [ -153, %mbedtls_ecjpake_to_psa_error.exit.fold.split ]
  ret i32 %.0
}